; Function Attrs: mustprogress nounwind uwtable
define hidden void @_ZN13expr_inverterD2Ev(ptr noundef nonnull align 8 dereferenceable(72) %this) unnamed_addr #3 align 2 personality ptr @__gxx_personality_v0 {
entry:
  store ptr getelementptr inbounds ({ [10 x ptr] }, ptr @_ZTV13expr_inverter, i64 0, i32 0, i64 2), ptr %this, align 8
  %m_inverters = getelementptr inbounds i8, ptr %this, i64 64
  %0 = load ptr, ptr %m_inverters, align 8
  %cmp.i.i = icmp eq ptr %0, null
  br i1 %cmp.i.i, label %_ZN10ptr_vectorI14iexpr_inverterED2Ev.exit, label %_ZN6vectorIP14iexpr_inverterLb0EjE3endEv.exit

_ZN6vectorIP14iexpr_inverterLb0EjE3endEv.exit:    ; preds = %entry
  %arrayidx.i.i = getelementptr inbounds i8, ptr %0, i64 -4
  %1 = load i32, ptr %arrayidx.i.i, align 4
  %2 = zext i32 %1 to i64
  %add.ptr.i = getelementptr inbounds ptr, ptr %0, i64 %2
  %cmp.not7 = icmp eq i32 %1, 0
  br i1 %cmp.not7, label %if.then.i.i.i, label %for.body

for.body:                                         ; preds = %_ZN6vectorIP14iexpr_inverterLb0EjE3endEv.exit, %for.inc
  %__begin1.08 = phi ptr [ %incdec.ptr, %for.inc ], [ %0, %_ZN6vectorIP14iexpr_inverterLb0EjE3endEv.exit ]
  %3 = load ptr, ptr %__begin1.08, align 8
  %cmp.i = icmp eq ptr %3, null
  br i1 %cmp.i, label %for.inc, label %if.end.i

if.end.i:                                         ; preds = %for.body
  %vtable.i = load ptr, ptr %3, align 8
  %4 = load ptr, ptr %vtable.i, align 8
  tail call void %4(ptr noundef nonnull align 8 dereferenceable(57) %3) #15
  invoke void @_ZN6memory10deallocateEPv(ptr noundef nonnull %3)
          to label %for.inc unwind label %terminate.lpad

for.inc:                                          ; preds = %for.body, %if.end.i
  %incdec.ptr = getelementptr inbounds i8, ptr %__begin1.08, i64 8
  %cmp.not = icmp eq ptr %incdec.ptr, %add.ptr.i
  br i1 %cmp.not, label %for.end, label %for.body

for.end:                                          ; preds = %for.inc
  %.pre = load ptr, ptr %m_inverters, align 8
  %tobool.not.i.i.i = icmp eq ptr %.pre, null
  br i1 %tobool.not.i.i.i, label %_ZN10ptr_vectorI14iexpr_inverterED2Ev.exit, label %if.then.i.i.i

if.then.i.i.i:                                    ; preds = %_ZN6vectorIP14iexpr_inverterLb0EjE3endEv.exit, %for.end
  %5 = phi ptr [ %.pre, %for.end ], [ %0, %_ZN6vectorIP14iexpr_inverterLb0EjE3endEv.exit ]
  %add.ptr.i.i.i.i = getelementptr inbounds i8, ptr %5, i64 -8
  invoke void @_ZN6memory10deallocateEPv(ptr noundef nonnull %add.ptr.i.i.i.i)
          to label %_ZN10ptr_vectorI14iexpr_inverterED2Ev.exit unwind label %terminate.lpad.i.i

terminate.lpad.i.i:                               ; preds = %if.then.i.i.i
  %6 = landingpad { ptr, i32 }
          catch ptr null
  %7 = extractvalue { ptr, i32 } %6, 0
  tail call void @__clang_call_terminate(ptr %7) #16
  unreachable

_ZN10ptr_vectorI14iexpr_inverterED2Ev.exit:       ; preds = %entry, %for.end, %if.then.i.i.i
  store ptr getelementptr inbounds ({ [10 x ptr] }, ptr @_ZTV14iexpr_inverter, i64 0, i32 0, i64 2), ptr %this, align 8
  %m_mc.i = getelementptr inbounds i8, ptr %this, i64 48
  %8 = load ptr, ptr %m_mc.i, align 8
  %tobool.not.i.i.i4 = icmp eq ptr %8, null
  br i1 %tobool.not.i.i.i4, label %_ZN3refI23generic_model_converterED2Ev.exit.i, label %if.then.i.i.i5

if.then.i.i.i5:                                   ; preds = %_ZN10ptr_vectorI14iexpr_inverterED2Ev.exit
  %m_ref_count.i.i.i.i = getelementptr inbounds i8, ptr %8, i64 8
  %9 = load i32, ptr %m_ref_count.i.i.i.i, align 8
  %dec.i.i.i.i = add i32 %9, -1
  store i32 %dec.i.i.i.i, ptr %m_ref_count.i.i.i.i, align 8
  %cmp.i.i.i.i = icmp eq i32 %dec.i.i.i.i, 0
  br i1 %cmp.i.i.i.i, label %if.then.i.i.i.i, label %_ZN3refI23generic_model_converterED2Ev.exit.i

if.then.i.i.i.i:                                  ; preds = %if.then.i.i.i5
  %vtable.i.i.i.i.i = load ptr, ptr %8, align 8
  %10 = load ptr, ptr %vtable.i.i.i.i.i, align 8
  tail call void %10(ptr noundef nonnull align 8 dereferenceable(12) %8) #15
  invoke void @_ZN6memory10deallocateEPv(ptr noundef nonnull %8)
          to label %_ZN3refI23generic_model_converterED2Ev.exit.i unwind label %terminate.lpad.i.i6

terminate.lpad.i.i6:                              ; preds = %if.then.i.i.i.i
  %11 = landingpad { ptr, i32 }
          catch ptr null
  %12 = extractvalue { ptr, i32 } %11, 0
  tail call void @__clang_call_terminate(ptr %12) #16
  unreachable

_ZN3refI23generic_model_converterED2Ev.exit.i:    ; preds = %if.then.i.i.i.i, %if.then.i.i.i5, %_ZN10ptr_vectorI14iexpr_inverterED2Ev.exit
  %_M_manager.i.i.i = getelementptr inbounds i8, ptr %this, i64 32
  %13 = load ptr, ptr %_M_manager.i.i.i, align 8
  %tobool.not.i.i1.i = icmp eq ptr %13, null
  br i1 %tobool.not.i.i1.i, label %_ZN14iexpr_inverterD2Ev.exit, label %if.then.i.i2.i

if.then.i.i2.i:                                   ; preds = %_ZN3refI23generic_model_converterED2Ev.exit.i
  %m_is_var.i = getelementptr inbounds i8, ptr %this, i64 16
  %call.i.i.i = invoke noundef zeroext i1 %13(ptr noundef nonnull align 8 dereferenceable(16) %m_is_var.i, ptr noundef nonnull align 8 dereferenceable(16) %m_is_var.i, i32 noundef 3)
          to label %_ZN14iexpr_inverterD2Ev.exit unwind label %terminate.lpad.i.i.i

terminate.lpad.i.i.i:                             ; preds = %if.then.i.i2.i
  %14 = landingpad { ptr, i32 }
          catch ptr null
  %15 = extractvalue { ptr, i32 } %14, 0
  tail call void @__clang_call_terminate(ptr %15) #16
  unreachable

_ZN14iexpr_inverterD2Ev.exit:                     ; preds = %_ZN3refI23generic_model_converterED2Ev.exit.i, %if.then.i.i2.i
  ret void

terminate.lpad:                                   ; preds = %if.end.i
  %16 = landingpad { ptr, i32 }
          catch ptr null
  %17 = extractvalue { ptr, i32 } %16, 0
  tail call void @__clang_call_terminate(ptr %17) #16
  unreachable
}